target datalayout = "e-m:e-p270:32:32-p271:32:32-p272:64:64-i64:64-i128:128-f80:128-n8:16:32:64-S128"
target triple = "x86_64-pc-linux-gnu"

; Function Attrs: null_pointer_is_valid sspstrong uwtable
define internal i32 @sint64_cmp_order(ptr noundef %0, ptr noundef %1, ptr noundef %2) #0 {
  %4 = alloca i32, align 4
  %5 = alloca ptr, align 8
  %6 = alloca ptr, align 8
  %7 = alloca ptr, align 8
  %8 = alloca i64, align 8
  %9 = alloca i64, align 8
  %10 = alloca i32, align 4
  %11 = alloca i32, align 4
  store ptr %0, ptr %5, align 8
  store ptr %1, ptr %6, align 8
  store ptr %2, ptr %7, align 8
  call void @llvm.lifetime.start.p0(i64 8, ptr %8) #10
  call void @llvm.lifetime.start.p0(i64 8, ptr %9) #10
  call void @llvm.lifetime.start.p0(i64 4, ptr %10) #10
  %12 = load ptr, ptr %5, align 8
  %13 = call i32 @fvalue_to_sinteger64(ptr noundef %12, ptr noundef %8)
  store i32 %13, ptr %10, align 4
  %14 = load i32, ptr %10, align 4
  %15 = icmp ne i32 %14, 0
  br i1 %15, label %16, label %18

16:                                               ; preds = %3
  %17 = load i32, ptr %10, align 4
  store i32 %17, ptr %4, align 4
  store i32 1, ptr %11, align 4
  br label %42

18:                                               ; preds = %3
  %19 = load ptr, ptr %6, align 8
  %20 = call i32 @fvalue_to_sinteger64(ptr noundef %19, ptr noundef %9)
  store i32 %20, ptr %10, align 4
  %21 = load i32, ptr %10, align 4
  switch i32 %21, label %39 [
    i32 0, label %22
    i32 2, label %35
    i32 1, label %37
  ]

22:                                               ; preds = %18
  %23 = load i64, ptr %8, align 8
  %24 = load i64, ptr %9, align 8
  %25 = icmp eq i64 %23, %24
  br i1 %25, label %26, label %28

26:                                               ; preds = %22
  %27 = load ptr, ptr %7, align 8
  store i32 0, ptr %27, align 4
  br label %34

28:                                               ; preds = %22
  %29 = load i64, ptr %8, align 8
  %30 = load i64, ptr %9, align 8
  %31 = icmp slt i64 %29, %30
  %32 = select i1 %31, i32 -1, i32 1
  %33 = load ptr, ptr %7, align 8
  store i32 %32, ptr %33, align 4
  br label %34

34:                                               ; preds = %28, %26
  br label %41

35:                                               ; preds = %18
  %36 = load ptr, ptr %7, align 8
  store i32 1, ptr %36, align 4
  br label %41

37:                                               ; preds = %18
  %38 = load ptr, ptr %7, align 8
  store i32 -1, ptr %38, align 4
  br label %41

39:                                               ; preds = %18
  %40 = load i32, ptr %10, align 4
  store i32 %40, ptr %4, align 4
  store i32 1, ptr %11, align 4
  br label %42

41:                                               ; preds = %37, %35, %34
  store i32 0, ptr %4, align 4
  store i32 1, ptr %11, align 4
  br label %42

42:                                               ; preds = %41, %39, %16
  call void @llvm.lifetime.end.p0(i64 4, ptr %10) #10
  call void @llvm.lifetime.end.p0(i64 8, ptr %9) #10
  call void @llvm.lifetime.end.p0(i64 8, ptr %8) #10
  %43 = load i32, ptr %4, align 4
  ret i32 %43
}