; Function Attrs: null_pointer_is_valid sspstrong uwtable
define internal i32 @sint64_cmp_order(ptr noundef %0, ptr noundef %1, ptr noundef writeonly captures(none) %2) #0 {
  %4 = alloca i64, align 8
  %5 = alloca i64, align 8
  call void @llvm.lifetime.start.p0(i64 8, ptr nonnull %4) #11
  call void @llvm.lifetime.start.p0(i64 8, ptr nonnull %5) #11
  %6 = call i32 @fvalue_to_sinteger64(ptr noundef %0, ptr noundef nonnull %4)
  %.not = icmp eq i32 %6, 0
  br i1 %.not, label %7, label %17

7:                                                ; preds = %3
  %8 = call i32 @fvalue_to_sinteger64(ptr noundef %1, ptr noundef nonnull %5)
  switch i32 %8, label %17 [
    i32 0, label %9
    i32 2, label %.sink.split
    i32 1, label %16
  ]

9:                                                ; preds = %7
  %10 = load i64, ptr %4, align 8
  %11 = load i64, ptr %5, align 8
  %12 = icmp eq i64 %10, %11
  br i1 %12, label %.sink.split, label %13

13:                                               ; preds = %9
  %14 = icmp slt i64 %10, %11
  %15 = select i1 %14, i32 -1, i32 1
  br label %.sink.split

16:                                               ; preds = %7
  br label %.sink.split

.sink.split:                                      ; preds = %7, %9, %13, %16
  %.sink = phi i32 [ -1, %16 ], [ %15, %13 ], [ 0, %9 ], [ 1, %7 ]
  store i32 %.sink, ptr %2, align 4
  br label %17

17:                                               ; preds = %.sink.split, %7, %3
  %.0 = phi i32 [ %6, %3 ], [ %8, %7 ], [ 0, %.sink.split ]
  call void @llvm.lifetime.end.p0(i64 8, ptr nonnull %5) #11
  call void @llvm.lifetime.end.p0(i64 8, ptr nonnull %4) #11
  ret i32 %.0
}